; Function Attrs: nounwind uwtable
define void @OPENSSL_LH_doall_arg_thunk(ptr noundef readonly captures(address_is_null) %0, ptr noundef readonly captures(none) %1, ptr noundef %2, ptr noundef %3) local_unnamed_addr #1 {
  %5 = icmp eq ptr %0, null
  br i1 %5, label %doall_util_fn.exit, label %6

6:                                                ; preds = %4
  %7 = getelementptr inbounds nuw i8, ptr %0, i64 56
  %8 = load i32, ptr %7, align 8, !tbaa !17
  %.022.i = add i32 %8, -1
  %9 = icmp sgt i32 %.022.i, -1
  br i1 %9, label %.lr.ph24.i, label %doall_util_fn.exit

.lr.ph24.i:                                       ; preds = %6
  %10 = zext nneg i32 %.022.i to i64
  br label %.lr.ph24.split.i

.loopexit.i:                                      ; preds = %.lr.ph.i, %.lr.ph24.split.i
  %indvars.iv.next.i = add nsw i64 %indvars.iv.i, -1
  %11 = icmp sgt i64 %indvars.iv.i, 0
  br i1 %11, label %.lr.ph24.split.i, label %doall_util_fn.exit, !llvm.loop !39

.lr.ph24.split.i:                                 ; preds = %.loopexit.i, %.lr.ph24.i
  %indvars.iv.i = phi i64 [ %indvars.iv.next.i, %.loopexit.i ], [ %10, %.lr.ph24.i ]
  %12 = load ptr, ptr %0, align 8, !tbaa !14
  %13 = getelementptr inbounds nuw ptr, ptr %12, i64 %indvars.iv.i
  %14 = load ptr, ptr %13, align 8, !tbaa !25
  %.not20.i = icmp eq ptr %14, null
  br i1 %.not20.i, label %.loopexit.i, label %.lr.ph.i

.lr.ph.i:                                         ; preds = %.lr.ph24.split.i, %.lr.ph.i
  %.01621.i = phi ptr [ %16, %.lr.ph.i ], [ %14, %.lr.ph24.split.i ]
  %15 = getelementptr inbounds nuw i8, ptr %.01621.i, i64 8
  %16 = load ptr, ptr %15, align 8, !tbaa !27
  %17 = load ptr, ptr %.01621.i, align 8, !tbaa !36
  tail call void %1(ptr noundef %17, ptr noundef %3, ptr noundef %2) #7
  %.not.i = icmp eq ptr %16, null
  br i1 %.not.i, label %.loopexit.i, label %.lr.ph.i, !llvm.loop !40

doall_util_fn.exit:                               ; preds = %.loopexit.i, %4, %6
  ret void
}